target datalayout = "e-m:e-p270:32:32-p271:32:32-p272:64:64-i64:64-i128:128-f80:128-n8:16:32:64-S128"
target triple = "x86_64-pc-linux-gnu"

%struct.rb_data_type_struct = type { ptr, %struct.anon.12, ptr, ptr, i64 }
%struct.anon.12 = type { ptr, ptr, ptr, ptr, [1 x ptr] }
%struct.rb_process_status = type { i32, i32, i32 }

@rb_process_status_type = internal constant %struct.rb_data_type_struct { ptr @.str.172, %struct.anon.12 { ptr null, ptr inttoptr (i64 -1 to ptr), ptr null, ptr null, [1 x ptr] zeroinitializer }, ptr null, ptr null, i64 35 }, align 8
@id_pid = internal global i64 0, align 8
@rb_cObject = external global i64, align 8
@ruby_static_id_status = external global i64, align 8

; Function Attrs: inlinehint nounwind sspstrong willreturn memory(none) uwtable
define internal i64 @RB_INT2FIX(i64 noundef %0) #4 {
  %2 = alloca i64, align 8
  %3 = alloca i64, align 8
  %4 = alloca i64, align 8
  %5 = alloca i64, align 8
  %6 = alloca i64, align 8
  %7 = alloca i64, align 8
  store i64 %0, ptr %2, align 8, !tbaa !35
  call void @llvm.lifetime.start.p0(i64 8, ptr %3) #27
  %8 = load i64, ptr %2, align 8, !tbaa !35
  store i64 %8, ptr %3, align 8, !tbaa !35
  call void @llvm.lifetime.start.p0(i64 8, ptr %4) #27
  %9 = load i64, ptr %3, align 8, !tbaa !35
  %10 = shl i64 %9, 1
  %11 = add i64 %10, 1
  store i64 %11, ptr %4, align 8, !tbaa !35
  call void @llvm.lifetime.start.p0(i64 8, ptr %5) #27
  %12 = load i64, ptr %4, align 8, !tbaa !35
  store i64 %12, ptr %5, align 8, !tbaa !35
  call void @llvm.lifetime.start.p0(i64 8, ptr %6) #27
  %13 = load i64, ptr %5, align 8, !tbaa !35
  store i64 %13, ptr %6, align 8, !tbaa !35
  call void @llvm.lifetime.start.p0(i64 8, ptr %7) #27
  %14 = load i64, ptr %6, align 8, !tbaa !35
  store i64 %14, ptr %7, align 8, !tbaa !35
  %15 = load i64, ptr %7, align 8, !tbaa !35
  call void @llvm.lifetime.end.p0(i64 8, ptr %7) #27
  call void @llvm.lifetime.end.p0(i64 8, ptr %6) #27
  call void @llvm.lifetime.end.p0(i64 8, ptr %5) #27
  call void @llvm.lifetime.end.p0(i64 8, ptr %4) #27
  call void @llvm.lifetime.end.p0(i64 8, ptr %3) #27
  ret i64 %15
}

; Function Attrs: inlinehint nounwind sspstrong uwtable
define internal i64 @rb_int2num_inline(i32 noundef %0) #1 {
  %2 = alloca i64, align 8
  %3 = alloca i32, align 4
  store i32 %0, ptr %3, align 4, !tbaa !34
  %4 = load i32, ptr %3, align 4, !tbaa !34
  %5 = sext i32 %4 to i64
  %6 = icmp slt i64 %5, 4611686018427387904
  br i1 %6, label %7, label %15

7:                                                ; preds = %1
  %8 = load i32, ptr %3, align 4, !tbaa !34
  %9 = sext i32 %8 to i64
  %10 = icmp sge i64 %9, -4611686018427387904
  br i1 %10, label %11, label %15

11:                                               ; preds = %7
  %12 = load i32, ptr %3, align 4, !tbaa !34
  %13 = sext i32 %12 to i64
  %14 = call i64 @RB_INT2FIX(i64 noundef %13) #28
  store i64 %14, ptr %2, align 8
  br label %19

15:                                               ; preds = %7, %1
  %16 = load i32, ptr %3, align 4, !tbaa !34
  %17 = sext i32 %16 to i64
  %18 = call i64 @rb_int2big(i64 noundef %17)
  store i64 %18, ptr %2, align 8
  br label %19

19:                                               ; preds = %15, %11
  %20 = load i64, ptr %2, align 8
  ret i64 %20
}

; Function Attrs: nounwind sspstrong uwtable
define internal i64 @process_status_dump(i64 noundef %0) #0 {
  %2 = alloca i64, align 8
  %3 = alloca i64, align 8
  %4 = alloca ptr, align 8
  store i64 %0, ptr %2, align 8, !tbaa !35
  call void @llvm.lifetime.start.p0(i64 8, ptr %3) #27
  %5 = load i64, ptr @rb_cObject, align 8, !tbaa !35
  %6 = call i64 @rb_class_new_instance(i32 noundef 0, ptr noundef null, i64 noundef %5)
  store i64 %6, ptr %3, align 8, !tbaa !35
  call void @llvm.lifetime.start.p0(i64 8, ptr %4) #27
  %7 = load i64, ptr %2, align 8, !tbaa !35
  %8 = call ptr @rb_check_typeddata(i64 noundef %7, ptr noundef @rb_process_status_type)
  store ptr %8, ptr %4, align 8, !tbaa !36
  %9 = load ptr, ptr %4, align 8, !tbaa !36
  %10 = getelementptr inbounds nuw %struct.rb_process_status, ptr %9, i32 0, i32 0
  %11 = load i32, ptr %10, align 4, !tbaa !38
  %12 = icmp ne i32 %11, 0
  br i1 %12, label %13, label %28

13:                                               ; preds = %1
  %14 = load i64, ptr %3, align 8, !tbaa !35
  %15 = load i64, ptr @ruby_static_id_status, align 8, !tbaa !35
  %16 = load ptr, ptr %4, align 8, !tbaa !36
  %17 = getelementptr inbounds nuw %struct.rb_process_status, ptr %16, i32 0, i32 1
  %18 = load i32, ptr %17, align 4, !tbaa !40
  %19 = call i64 @rb_int2num_inline(i32 noundef %18)
  %20 = call i64 @rb_ivar_set(i64 noundef %14, i64 noundef %15, i64 noundef %19)
  %21 = load i64, ptr %3, align 8, !tbaa !35
  %22 = load i64, ptr @id_pid, align 8, !tbaa !35
  %23 = load ptr, ptr %4, align 8, !tbaa !36
  %24 = getelementptr inbounds nuw %struct.rb_process_status, ptr %23, i32 0, i32 0
  %25 = load i32, ptr %24, align 4, !tbaa !38
  %26 = call i64 @rb_int2num_inline(i32 noundef %25)
  %27 = call i64 @rb_ivar_set(i64 noundef %21, i64 noundef %22, i64 noundef %26)
  br label %28

28:                                               ; preds = %13, %1
  %29 = load i64, ptr %3, align 8, !tbaa !35
  call void @llvm.lifetime.end.p0(i64 8, ptr %4) #27
  call void @llvm.lifetime.end.p0(i64 8, ptr %3) #27
  ret i64 %29
}