; Function Attrs: nounwind sspstrong uwtable
define internal i64 @process_status_dump(i64 noundef %0) #1 {
  %2 = load i64, ptr @rb_cObject, align 8, !tbaa !43
  %3 = tail call i64 @rb_class_new_instance(i32 noundef 0, ptr noundef null, i64 noundef %2) #27
  %4 = tail call ptr @rb_check_typeddata(i64 noundef %0, ptr noundef nonnull @rb_process_status_type) #27
  %5 = load i32, ptr %4, align 4, !tbaa !49
  %.not = icmp eq i32 %5, 0
  br i1 %.not, label %20, label %6

6:                                                ; preds = %1
  %7 = load i64, ptr @ruby_static_id_status, align 8, !tbaa !43
  %8 = getelementptr inbounds nuw i8, ptr %4, i64 4
  %9 = load i32, ptr %8, align 4, !tbaa !51
  %10 = sext i32 %9 to i64
  %11 = shl nsw i64 %10, 1
  %12 = or disjoint i64 %11, 1
  %13 = tail call i64 @rb_ivar_set(i64 noundef %3, i64 noundef %7, i64 noundef %12) #27
  %14 = load i64, ptr @id_pid, align 8, !tbaa !43
  %15 = load i32, ptr %4, align 4, !tbaa !49
  %16 = sext i32 %15 to i64
  %17 = shl nsw i64 %16, 1
  %18 = or disjoint i64 %17, 1
  %19 = tail call i64 @rb_ivar_set(i64 noundef %3, i64 noundef %14, i64 noundef %18) #27
  br label %20

20:                                               ; preds = %6, %1
  ret i64 %3
}